target datalayout = "e-m:e-p270:32:32-p271:32:32-p272:64:64-i64:64-i128:128-f80:128-n8:16:32:64-S128"
target triple = "x86_64-pc-linux-gnu"

%struct._zend_executor_globals = type { %struct._zval_struct, %struct._zval_struct, [32 x ptr], ptr, ptr, %struct._zend_array, %struct._zend_array, ptr, i32, i8, %struct._zval_struct, i32, ptr, ptr, ptr, ptr, ptr, ptr, i64, ptr, ptr, i32, ptr, i32, i64, i32, i32, i32, i8, i8, %struct.zend_atomic_bool_s, %struct.zend_atomic_bool_s, ptr, i64, ptr, ptr, %struct._zend_array, %struct._zend_array, i32, i8, %struct._zval_struct, %struct._zval_struct, %struct._zend_stack, %struct._zend_stack, %struct._zend_stack, ptr, i32, i32, i64, ptr, ptr, ptr, %struct._zend_objects_store, %struct._zend_lazy_objects_store, ptr, ptr, ptr, [3 x %struct._zend_op], ptr, i8, i8, i64, i32, i32, ptr, [16 x %struct._HashTableIterator], ptr, %union._zend_function, %struct._zend_op, %struct._zend_array, i64, %struct.zend_get_gc_buffer, ptr, ptr, ptr, i64, i8, i32, ptr, ptr, i64, %struct._zend_call_stack, i64, i64, %struct._zend_strtod_state, [6 x ptr] }
%struct.zend_atomic_bool_s = type { i8 }
%struct._zval_struct = type { %union._zend_value, %union.anon, %union.anon.2 }
%union._zend_value = type { i64 }
%union.anon = type { i32 }
%union.anon.2 = type { i32 }
%struct._zend_stack = type { i32, i32, i32, ptr }
%struct._zend_objects_store = type { ptr, i32, i32, i32 }
%struct._zend_lazy_objects_store = type { %struct._zend_array }
%struct._HashTableIterator = type { ptr, i32, i32 }
%union._zend_function = type { %struct._zend_op_array }
%struct._zend_op_array = type { i8, [3 x i8], i32, ptr, ptr, ptr, i32, i32, ptr, ptr, ptr, ptr, i32, ptr, i32, i32, i32, ptr, ptr, ptr, ptr, ptr, i32, i32, ptr, ptr, ptr, i32, i32, i32, i32, ptr, ptr, [6 x ptr] }
%struct._zend_op = type { ptr, %union._znode_op, %union._znode_op, %union._znode_op, i32, i32, i8, i8, i8, i8 }
%union._znode_op = type { i32 }
%struct._zend_array = type { %struct._zend_refcounted_h, %union.anon.4, i32, %union.anon.6, i32, i32, i32, i32, i64, ptr }
%struct._zend_refcounted_h = type { i32, %union.anon.3 }
%union.anon.3 = type { i32 }
%union.anon.4 = type { i32 }
%union.anon.6 = type { ptr }
%struct.zend_get_gc_buffer = type { ptr, ptr, ptr }
%struct._zend_call_stack = type { ptr, i64 }
%struct._zend_strtod_state = type { [8 x ptr], ptr, ptr }
%struct._zend_fiber_stack = type { ptr, i64 }
%struct._zend_fiber_context = type { ptr, ptr, ptr, ptr, ptr, i32, ptr, [6 x ptr] }
%struct.boost_context_data = type { ptr, ptr }
%struct._zend_fiber_transfer = type { ptr, %struct._zval_struct, i8 }
%struct._zend_fiber_vm_state = type { ptr, ptr, ptr, i64, ptr, i32, i32, ptr, ptr, ptr, ptr }

@executor_globals = external global %struct._zend_executor_globals, align 8
@zend_fiber_get_page_size.page_size = internal global i64 0, align 8

; Function Attrs: nounwind uwtable
define internal i64 @zend_fiber_get_page_size() #0 {
  %1 = load i64, ptr @zend_fiber_get_page_size.page_size, align 8, !tbaa !44
  %2 = icmp ne i64 %1, 0
  br i1 %2, label %15, label %3

3:                                                ; preds = %0
  %4 = call i64 @zend_get_page_size()
  store i64 %4, ptr @zend_fiber_get_page_size.page_size, align 8, !tbaa !44
  %5 = load i64, ptr @zend_fiber_get_page_size.page_size, align 8, !tbaa !44
  %6 = icmp ne i64 %5, 0
  br i1 %6, label %7, label %13

7:                                                ; preds = %3
  %8 = load i64, ptr @zend_fiber_get_page_size.page_size, align 8, !tbaa !44
  %9 = load i64, ptr @zend_fiber_get_page_size.page_size, align 8, !tbaa !44
  %10 = sub i64 %9, 1
  %11 = and i64 %8, %10
  %12 = icmp ne i64 %11, 0
  br i1 %12, label %13, label %14

13:                                               ; preds = %7, %3
  store i64 4096, ptr @zend_fiber_get_page_size.page_size, align 8, !tbaa !44
  br label %14

14:                                               ; preds = %13, %7
  br label %15

15:                                               ; preds = %14, %0
  %16 = load i64, ptr @zend_fiber_get_page_size.page_size, align 8, !tbaa !44
  ret i64 %16
}

; Function Attrs: nounwind uwtable
define internal void @zend_fiber_stack_free(ptr noundef %0) #0 {
  %2 = alloca ptr, align 8
  %3 = alloca i64, align 8
  %4 = alloca ptr, align 8
  store ptr %0, ptr %2, align 8, !tbaa !4
  call void @llvm.lifetime.start.p0(i64 8, ptr %3) #18
  %5 = call i64 @zend_fiber_get_page_size()
  store i64 %5, ptr %3, align 8, !tbaa !44
  call void @llvm.lifetime.start.p0(i64 8, ptr %4) #18
  %6 = load ptr, ptr %2, align 8, !tbaa !4
  %7 = getelementptr inbounds nuw %struct._zend_fiber_stack, ptr %6, i32 0, i32 0
  %8 = load ptr, ptr %7, align 8, !tbaa !45
  %9 = ptrtoint ptr %8 to i64
  %10 = load i64, ptr %3, align 8, !tbaa !44
  %11 = mul i64 1, %10
  %12 = sub i64 %9, %11
  %13 = inttoptr i64 %12 to ptr
  store ptr %13, ptr %4, align 8, !tbaa !50
  %14 = load ptr, ptr %4, align 8, !tbaa !50
  %15 = load ptr, ptr %2, align 8, !tbaa !4
  %16 = getelementptr inbounds nuw %struct._zend_fiber_stack, ptr %15, i32 0, i32 1
  %17 = load i64, ptr %16, align 8, !tbaa !47
  %18 = load i64, ptr %3, align 8, !tbaa !44
  %19 = mul i64 1, %18
  %20 = add i64 %17, %19
  %21 = call i32 @munmap(ptr noundef %14, i64 noundef %20) #18
  %22 = load ptr, ptr %2, align 8, !tbaa !4
  call void @_efree(ptr noundef %22)
  call void @llvm.lifetime.end.p0(i64 8, ptr %4) #18
  call void @llvm.lifetime.end.p0(i64 8, ptr %3) #18
  ret void
}

; Function Attrs: nounwind uwtable
define dso_local void @zend_fiber_destroy_context(ptr noundef %0) #0 {
  %2 = alloca ptr, align 8
  store ptr %0, ptr %2, align 8, !tbaa !49
  %3 = load ptr, ptr %2, align 8, !tbaa !49
  call void @zend_observer_fiber_destroy_notify(ptr noundef %3)
  %4 = load ptr, ptr %2, align 8, !tbaa !49
  %5 = getelementptr inbounds nuw %struct._zend_fiber_context, ptr %4, i32 0, i32 3
  %6 = load ptr, ptr %5, align 8, !tbaa !66
  %7 = icmp ne ptr %6, null
  br i1 %7, label %8, label %13

8:                                                ; preds = %1
  %9 = load ptr, ptr %2, align 8, !tbaa !49
  %10 = getelementptr inbounds nuw %struct._zend_fiber_context, ptr %9, i32 0, i32 3
  %11 = load ptr, ptr %10, align 8, !tbaa !66
  %12 = load ptr, ptr %2, align 8, !tbaa !49
  call void %11(ptr noundef %12)
  br label %13

13:                                               ; preds = %8, %1
  %14 = load ptr, ptr %2, align 8, !tbaa !49
  %15 = getelementptr inbounds nuw %struct._zend_fiber_context, ptr %14, i32 0, i32 4
  %16 = load ptr, ptr %15, align 8, !tbaa !51
  call void @zend_fiber_stack_free(ptr noundef %16)
  ret void
}

; Function Attrs: alwaysinline nounwind uwtable
define internal void @zend_fiber_restore_vm_state(ptr noundef %0) #6 {
  %2 = alloca ptr, align 8
  store ptr %0, ptr %2, align 8, !tbaa !68
  %3 = load ptr, ptr %2, align 8, !tbaa !68
  %4 = getelementptr inbounds nuw %struct._zend_fiber_vm_state, ptr %3, i32 0, i32 0
  %5 = load ptr, ptr %4, align 8, !tbaa !71
  store ptr %5, ptr getelementptr inbounds nuw (%struct._zend_executor_globals, ptr @executor_globals, i32 0, i32 17), align 8, !tbaa !70
  %6 = load ptr, ptr %2, align 8, !tbaa !68
  %7 = getelementptr inbounds nuw %struct._zend_fiber_vm_state, ptr %6, i32 0, i32 1
  %8 = load ptr, ptr %7, align 8, !tbaa !74
  store ptr %8, ptr getelementptr inbounds nuw (%struct._zend_executor_globals, ptr @executor_globals, i32 0, i32 15), align 8, !tbaa !73
  %9 = load ptr, ptr %2, align 8, !tbaa !68
  %10 = getelementptr inbounds nuw %struct._zend_fiber_vm_state, ptr %9, i32 0, i32 2
  %11 = load ptr, ptr %10, align 8, !tbaa !76
  store ptr %11, ptr getelementptr inbounds nuw (%struct._zend_executor_globals, ptr @executor_globals, i32 0, i32 16), align 8, !tbaa !75
  %12 = load ptr, ptr %2, align 8, !tbaa !68
  %13 = getelementptr inbounds nuw %struct._zend_fiber_vm_state, ptr %12, i32 0, i32 3
  %14 = load i64, ptr %13, align 8, !tbaa !78
  store i64 %14, ptr getelementptr inbounds nuw (%struct._zend_executor_globals, ptr @executor_globals, i32 0, i32 18), align 8, !tbaa !77
  %15 = load ptr, ptr %2, align 8, !tbaa !68
  %16 = getelementptr inbounds nuw %struct._zend_fiber_vm_state, ptr %15, i32 0, i32 4
  %17 = load ptr, ptr %16, align 8, !tbaa !80
  store ptr %17, ptr getelementptr inbounds nuw (%struct._zend_executor_globals, ptr @executor_globals, i32 0, i32 19), align 8, !tbaa !79
  %18 = load ptr, ptr %2, align 8, !tbaa !68
  %19 = getelementptr inbounds nuw %struct._zend_fiber_vm_state, ptr %18, i32 0, i32 5
  %20 = load i32, ptr %19, align 8, !tbaa !82
  store i32 %20, ptr getelementptr inbounds nuw (%struct._zend_executor_globals, ptr @executor_globals, i32 0, i32 8), align 8, !tbaa !81
  %21 = load ptr, ptr %2, align 8, !tbaa !68
  %22 = getelementptr inbounds nuw %struct._zend_fiber_vm_state, ptr %21, i32 0, i32 6
  %23 = load i32, ptr %22, align 4, !tbaa !84
  store i32 %23, ptr getelementptr inbounds nuw (%struct._zend_executor_globals, ptr @executor_globals, i32 0, i32 21), align 8, !tbaa !83
  %24 = load ptr, ptr %2, align 8, !tbaa !68
  %25 = getelementptr inbounds nuw %struct._zend_fiber_vm_state, ptr %24, i32 0, i32 7
  %26 = load ptr, ptr %25, align 8, !tbaa !86
  store ptr %26, ptr getelementptr inbounds nuw (%struct._zend_executor_globals, ptr @executor_globals, i32 0, i32 7), align 8, !tbaa !85
  %27 = load ptr, ptr %2, align 8, !tbaa !68
  %28 = getelementptr inbounds nuw %struct._zend_fiber_vm_state, ptr %27, i32 0, i32 8
  %29 = load ptr, ptr %28, align 8, !tbaa !88
  store ptr %29, ptr getelementptr inbounds nuw (%struct._zend_executor_globals, ptr @executor_globals, i32 0, i32 74), align 8, !tbaa !87
  %30 = load ptr, ptr %2, align 8, !tbaa !68
  %31 = getelementptr inbounds nuw %struct._zend_fiber_vm_state, ptr %30, i32 0, i32 9
  %32 = load ptr, ptr %31, align 8, !tbaa !90
  store ptr %32, ptr getelementptr inbounds nuw (%struct._zend_executor_globals, ptr @executor_globals, i32 0, i32 34), align 8, !tbaa !89
  %33 = load ptr, ptr %2, align 8, !tbaa !68
  %34 = getelementptr inbounds nuw %struct._zend_fiber_vm_state, ptr %33, i32 0, i32 10
  %35 = load ptr, ptr %34, align 8, !tbaa !92
  store ptr %35, ptr getelementptr inbounds nuw (%struct._zend_executor_globals, ptr @executor_globals, i32 0, i32 35), align 8, !tbaa !91
  ret void
}

; Function Attrs: alwaysinline nounwind uwtable
define internal void @zend_fiber_capture_vm_state(ptr noundef %0) #6 {
  %2 = alloca ptr, align 8
  store ptr %0, ptr %2, align 8, !tbaa !68
  %3 = load ptr, ptr getelementptr inbounds nuw (%struct._zend_executor_globals, ptr @executor_globals, i32 0, i32 17), align 8, !tbaa !70
  %4 = load ptr, ptr %2, align 8, !tbaa !68
  %5 = getelementptr inbounds nuw %struct._zend_fiber_vm_state, ptr %4, i32 0, i32 0
  store ptr %3, ptr %5, align 8, !tbaa !71
  %6 = load ptr, ptr getelementptr inbounds nuw (%struct._zend_executor_globals, ptr @executor_globals, i32 0, i32 15), align 8, !tbaa !73
  %7 = load ptr, ptr %2, align 8, !tbaa !68
  %8 = getelementptr inbounds nuw %struct._zend_fiber_vm_state, ptr %7, i32 0, i32 1
  store ptr %6, ptr %8, align 8, !tbaa !74
  %9 = load ptr, ptr getelementptr inbounds nuw (%struct._zend_executor_globals, ptr @executor_globals, i32 0, i32 16), align 8, !tbaa !75
  %10 = load ptr, ptr %2, align 8, !tbaa !68
  %11 = getelementptr inbounds nuw %struct._zend_fiber_vm_state, ptr %10, i32 0, i32 2
  store ptr %9, ptr %11, align 8, !tbaa !76
  %12 = load i64, ptr getelementptr inbounds nuw (%struct._zend_executor_globals, ptr @executor_globals, i32 0, i32 18), align 8, !tbaa !77
  %13 = load ptr, ptr %2, align 8, !tbaa !68
  %14 = getelementptr inbounds nuw %struct._zend_fiber_vm_state, ptr %13, i32 0, i32 3
  store i64 %12, ptr %14, align 8, !tbaa !78
  %15 = load ptr, ptr getelementptr inbounds nuw (%struct._zend_executor_globals, ptr @executor_globals, i32 0, i32 19), align 8, !tbaa !79
  %16 = load ptr, ptr %2, align 8, !tbaa !68
  %17 = getelementptr inbounds nuw %struct._zend_fiber_vm_state, ptr %16, i32 0, i32 4
  store ptr %15, ptr %17, align 8, !tbaa !80
  %18 = load i32, ptr getelementptr inbounds nuw (%struct._zend_executor_globals, ptr @executor_globals, i32 0, i32 8), align 8, !tbaa !81
  %19 = load ptr, ptr %2, align 8, !tbaa !68
  %20 = getelementptr inbounds nuw %struct._zend_fiber_vm_state, ptr %19, i32 0, i32 5
  store i32 %18, ptr %20, align 8, !tbaa !82
  %21 = load i32, ptr getelementptr inbounds nuw (%struct._zend_executor_globals, ptr @executor_globals, i32 0, i32 21), align 8, !tbaa !83
  %22 = load ptr, ptr %2, align 8, !tbaa !68
  %23 = getelementptr inbounds nuw %struct._zend_fiber_vm_state, ptr %22, i32 0, i32 6
  store i32 %21, ptr %23, align 4, !tbaa !84
  %24 = load ptr, ptr getelementptr inbounds nuw (%struct._zend_executor_globals, ptr @executor_globals, i32 0, i32 7), align 8, !tbaa !85
  %25 = load ptr, ptr %2, align 8, !tbaa !68
  %26 = getelementptr inbounds nuw %struct._zend_fiber_vm_state, ptr %25, i32 0, i32 7
  store ptr %24, ptr %26, align 8, !tbaa !86
  %27 = load ptr, ptr getelementptr inbounds nuw (%struct._zend_executor_globals, ptr @executor_globals, i32 0, i32 74), align 8, !tbaa !87
  %28 = load ptr, ptr %2, align 8, !tbaa !68
  %29 = getelementptr inbounds nuw %struct._zend_fiber_vm_state, ptr %28, i32 0, i32 8
  store ptr %27, ptr %29, align 8, !tbaa !88
  %30 = load ptr, ptr getelementptr inbounds nuw (%struct._zend_executor_globals, ptr @executor_globals, i32 0, i32 34), align 8, !tbaa !89
  %31 = load ptr, ptr %2, align 8, !tbaa !68
  %32 = getelementptr inbounds nuw %struct._zend_fiber_vm_state, ptr %31, i32 0, i32 9
  store ptr %30, ptr %32, align 8, !tbaa !90
  %33 = load ptr, ptr getelementptr inbounds nuw (%struct._zend_executor_globals, ptr @executor_globals, i32 0, i32 35), align 8, !tbaa !91
  %34 = load ptr, ptr %2, align 8, !tbaa !68
  %35 = getelementptr inbounds nuw %struct._zend_fiber_vm_state, ptr %34, i32 0, i32 10
  store ptr %33, ptr %35, align 8, !tbaa !92
  ret void
}

; Function Attrs: nounwind uwtable
define dso_local void @zend_fiber_switch_context(ptr noundef %0) #0 {
  %2 = alloca ptr, align 8
  %3 = alloca ptr, align 8
  %4 = alloca ptr, align 8
  %5 = alloca %struct._zend_fiber_vm_state, align 8
  %6 = alloca %struct.boost_context_data, align 8
  store ptr %0, ptr %2, align 8, !tbaa !67
  call void @llvm.lifetime.start.p0(i64 8, ptr %3) #18
  %7 = load ptr, ptr getelementptr inbounds nuw (%struct._zend_executor_globals, ptr @executor_globals, i32 0, i32 73), align 8, !tbaa !65
  store ptr %7, ptr %3, align 8, !tbaa !49
  call void @llvm.lifetime.start.p0(i64 8, ptr %4) #18
  %8 = load ptr, ptr %2, align 8, !tbaa !67
  %9 = getelementptr inbounds nuw %struct._zend_fiber_transfer, ptr %8, i32 0, i32 0
  %10 = load ptr, ptr %9, align 8, !tbaa !62
  store ptr %10, ptr %4, align 8, !tbaa !49
  call void @llvm.lifetime.start.p0(i64 80, ptr %5) #18
  %11 = load ptr, ptr %4, align 8, !tbaa !49
  %12 = icmp ne ptr %11, null
  br i1 %12, label %13, label %24

13:                                               ; preds = %1
  %14 = load ptr, ptr %4, align 8, !tbaa !49
  %15 = getelementptr inbounds nuw %struct._zend_fiber_context, ptr %14, i32 0, i32 0
  %16 = load ptr, ptr %15, align 8, !tbaa !53
  %17 = icmp ne ptr %16, null
  br i1 %17, label %18, label %24

18:                                               ; preds = %13
  %19 = load ptr, ptr %4, align 8, !tbaa !49
  %20 = getelementptr inbounds nuw %struct._zend_fiber_context, ptr %19, i32 0, i32 5
  %21 = load i32, ptr %20, align 8, !tbaa !56
  %22 = icmp ne i32 %21, 3
  br i1 %22, label %23, label %24

23:                                               ; preds = %18
  br label %24

24:                                               ; preds = %23, %18, %13, %1
  %25 = phi i1 [ false, %18 ], [ false, %13 ], [ false, %1 ], [ true, %23 ]
  call void @llvm.assume(i1 %25)
  %26 = load ptr, ptr %3, align 8, !tbaa !49
  %27 = icmp ne ptr %26, null
  br i1 %27, label %28, label %29

28:                                               ; preds = %24
  br label %29

29:                                               ; preds = %28, %24
  %30 = phi i1 [ false, %24 ], [ true, %28 ]
  call void @llvm.assume(i1 %30)
  %31 = load ptr, ptr %4, align 8, !tbaa !49
  %32 = load ptr, ptr %3, align 8, !tbaa !49
  %33 = icmp ne ptr %31, %32
  br i1 %33, label %34, label %35

34:                                               ; preds = %29
  br label %35

35:                                               ; preds = %34, %29
  %36 = phi i1 [ false, %29 ], [ true, %34 ]
  call void @llvm.assume(i1 %36)
  %37 = load ptr, ptr %3, align 8, !tbaa !49
  %38 = load ptr, ptr %4, align 8, !tbaa !49
  call void @zend_observer_fiber_switch_notify(ptr noundef %37, ptr noundef %38)
  call void @zend_fiber_capture_vm_state(ptr noundef %5)
  %39 = load ptr, ptr %4, align 8, !tbaa !49
  %40 = getelementptr inbounds nuw %struct._zend_fiber_context, ptr %39, i32 0, i32 5
  store i32 1, ptr %40, align 8, !tbaa !56
  %41 = load ptr, ptr %3, align 8, !tbaa !49
  %42 = getelementptr inbounds nuw %struct._zend_fiber_context, ptr %41, i32 0, i32 5
  %43 = load i32, ptr %42, align 8, !tbaa !56
  %44 = icmp eq i32 %43, 1
  %45 = xor i1 %44, true
  %46 = xor i1 %45, true
  %47 = zext i1 %46 to i32
  %48 = sext i32 %47 to i64
  %49 = call i64 @llvm.expect.i64(i64 %48, i64 1)
  %50 = icmp ne i64 %49, 0
  br i1 %50, label %51, label %54

51:                                               ; preds = %35
  %52 = load ptr, ptr %3, align 8, !tbaa !49
  %53 = getelementptr inbounds nuw %struct._zend_fiber_context, ptr %52, i32 0, i32 5
  store i32 2, ptr %53, align 8, !tbaa !56
  br label %54

54:                                               ; preds = %51, %35
  %55 = load ptr, ptr %3, align 8, !tbaa !49
  %56 = load ptr, ptr %2, align 8, !tbaa !67
  %57 = getelementptr inbounds nuw %struct._zend_fiber_transfer, ptr %56, i32 0, i32 0
  store ptr %55, ptr %57, align 8, !tbaa !62
  %58 = load ptr, ptr %4, align 8, !tbaa !49
  store ptr %58, ptr getelementptr inbounds nuw (%struct._zend_executor_globals, ptr @executor_globals, i32 0, i32 73), align 8, !tbaa !65
  call void @llvm.lifetime.start.p0(i64 16, ptr %6) #18
  %59 = load ptr, ptr %4, align 8, !tbaa !49
  %60 = getelementptr inbounds nuw %struct._zend_fiber_context, ptr %59, i32 0, i32 0
  %61 = load ptr, ptr %60, align 8, !tbaa !53
  %62 = load ptr, ptr %2, align 8, !tbaa !67
  %63 = call { ptr, ptr } @jump_fcontext(ptr noundef %61, ptr noundef %62)
  %64 = getelementptr inbounds nuw { ptr, ptr }, ptr %6, i32 0, i32 0
  %65 = extractvalue { ptr, ptr } %63, 0
  store ptr %65, ptr %64, align 8
  %66 = getelementptr inbounds nuw { ptr, ptr }, ptr %6, i32 0, i32 1
  %67 = extractvalue { ptr, ptr } %63, 1
  store ptr %67, ptr %66, align 8
  %68 = load ptr, ptr %2, align 8, !tbaa !67
  %69 = getelementptr inbounds nuw %struct.boost_context_data, ptr %6, i32 0, i32 1
  %70 = load ptr, ptr %69, align 8, !tbaa !57
  call void @llvm.memcpy.p0.p0.i64(ptr align 8 %68, ptr align 8 %70, i64 32, i1 false), !tbaa.struct !60
  %71 = load ptr, ptr %2, align 8, !tbaa !67
  %72 = getelementptr inbounds nuw %struct._zend_fiber_transfer, ptr %71, i32 0, i32 0
  %73 = load ptr, ptr %72, align 8, !tbaa !62
  store ptr %73, ptr %4, align 8, !tbaa !49
  %74 = getelementptr inbounds nuw %struct.boost_context_data, ptr %6, i32 0, i32 0
  %75 = load ptr, ptr %74, align 8, !tbaa !64
  %76 = load ptr, ptr %4, align 8, !tbaa !49
  %77 = getelementptr inbounds nuw %struct._zend_fiber_context, ptr %76, i32 0, i32 0
  store ptr %75, ptr %77, align 8, !tbaa !53
  %78 = load ptr, ptr %3, align 8, !tbaa !49
  store ptr %78, ptr getelementptr inbounds nuw (%struct._zend_executor_globals, ptr @executor_globals, i32 0, i32 73), align 8, !tbaa !65
  call void @zend_fiber_restore_vm_state(ptr noundef %5)
  %79 = load ptr, ptr %4, align 8, !tbaa !49
  %80 = getelementptr inbounds nuw %struct._zend_fiber_context, ptr %79, i32 0, i32 5
  %81 = load i32, ptr %80, align 8, !tbaa !56
  %82 = icmp eq i32 %81, 3
  br i1 %82, label %83, label %85

83:                                               ; preds = %54
  %84 = load ptr, ptr %4, align 8, !tbaa !49
  call void @zend_fiber_destroy_context(ptr noundef %84)
  br label %85

85:                                               ; preds = %83, %54
  call void @llvm.lifetime.end.p0(i64 16, ptr %6) #18
  call void @llvm.lifetime.end.p0(i64 80, ptr %5) #18
  call void @llvm.lifetime.end.p0(i64 8, ptr %4) #18
  call void @llvm.lifetime.end.p0(i64 8, ptr %3) #18
  ret void
}