; Function Attrs: nounwind uwtable
define dso_local void @zend_fiber_switch_context(ptr noundef %0) local_unnamed_addr #7 {
  %2 = load ptr, ptr getelementptr inbounds nuw (i8, ptr @executor_globals, i64 1768), align 8, !tbaa !60, !nonnull !61, !noundef !61
  %3 = load ptr, ptr %0, align 8, !tbaa !57, !nonnull !61, !noundef !61
  %4 = load ptr, ptr %3, align 8, !tbaa !50
  %5 = icmp ne ptr %4, null
  tail call void @llvm.assume(i1 %5)
  %6 = getelementptr inbounds nuw i8, ptr %3, i64 40
  %7 = load i32, ptr %6, align 8, !tbaa !53
  %8 = icmp ne i32 %7, 3
  tail call void @llvm.assume(i1 %8)
  %9 = icmp ne ptr %3, %2
  tail call void @llvm.assume(i1 %9)
  tail call void @zend_observer_fiber_switch_notify(ptr noundef nonnull %2, ptr noundef nonnull %3) #22
  %10 = load ptr, ptr getelementptr inbounds nuw (i8, ptr @executor_globals, i64 496), align 8, !tbaa !62
  %11 = load ptr, ptr getelementptr inbounds nuw (i8, ptr @executor_globals, i64 480), align 8, !tbaa !63
  %12 = load ptr, ptr getelementptr inbounds nuw (i8, ptr @executor_globals, i64 488), align 8, !tbaa !64
  %13 = load i64, ptr getelementptr inbounds nuw (i8, ptr @executor_globals, i64 504), align 8, !tbaa !65
  %14 = load ptr, ptr getelementptr inbounds nuw (i8, ptr @executor_globals, i64 512), align 8, !tbaa !66
  %15 = load i32, ptr getelementptr inbounds nuw (i8, ptr @executor_globals, i64 424), align 8, !tbaa !67
  %16 = load i32, ptr getelementptr inbounds nuw (i8, ptr @executor_globals, i64 528), align 8, !tbaa !68
  %17 = load ptr, ptr getelementptr inbounds nuw (i8, ptr @executor_globals, i64 416), align 8, !tbaa !69
  %18 = load ptr, ptr getelementptr inbounds nuw (i8, ptr @executor_globals, i64 1776), align 8, !tbaa !70
  %19 = load ptr, ptr getelementptr inbounds nuw (i8, ptr @executor_globals, i64 592), align 8, !tbaa !71
  %20 = load ptr, ptr getelementptr inbounds nuw (i8, ptr @executor_globals, i64 600), align 8, !tbaa !72
  store i32 1, ptr %6, align 8, !tbaa !53
  %21 = getelementptr inbounds nuw i8, ptr %2, i64 40
  %22 = load i32, ptr %21, align 8, !tbaa !53
  %23 = icmp eq i32 %22, 1
  br i1 %23, label %24, label %25, !prof !73

24:                                               ; preds = %1
  store i32 2, ptr %21, align 8, !tbaa !53
  br label %25

25:                                               ; preds = %24, %1
  store ptr %2, ptr %0, align 8, !tbaa !57
  store ptr %3, ptr getelementptr inbounds nuw (i8, ptr @executor_globals, i64 1768), align 8, !tbaa !60
  %26 = load ptr, ptr %3, align 8, !tbaa !50
  %27 = tail call { ptr, ptr } @jump_fcontext(ptr noundef %26, ptr noundef nonnull %0) #22
  %28 = extractvalue { ptr, ptr } %27, 0
  %29 = extractvalue { ptr, ptr } %27, 1
  tail call void @llvm.memcpy.p0.p0.i64(ptr noundef nonnull align 8 dereferenceable(32) %0, ptr noundef nonnull align 8 dereferenceable(32) %29, i64 32, i1 false), !tbaa.struct !54
  %30 = load ptr, ptr %0, align 8, !tbaa !57
  store ptr %28, ptr %30, align 8, !tbaa !50
  store ptr %2, ptr getelementptr inbounds nuw (i8, ptr @executor_globals, i64 1768), align 8, !tbaa !60
  store ptr %10, ptr getelementptr inbounds nuw (i8, ptr @executor_globals, i64 496), align 8, !tbaa !62
  store ptr %11, ptr getelementptr inbounds nuw (i8, ptr @executor_globals, i64 480), align 8, !tbaa !63
  store ptr %12, ptr getelementptr inbounds nuw (i8, ptr @executor_globals, i64 488), align 8, !tbaa !64
  store i64 %13, ptr getelementptr inbounds nuw (i8, ptr @executor_globals, i64 504), align 8, !tbaa !65
  store ptr %14, ptr getelementptr inbounds nuw (i8, ptr @executor_globals, i64 512), align 8, !tbaa !66
  store i32 %15, ptr getelementptr inbounds nuw (i8, ptr @executor_globals, i64 424), align 8, !tbaa !67
  store i32 %16, ptr getelementptr inbounds nuw (i8, ptr @executor_globals, i64 528), align 8, !tbaa !68
  store ptr %17, ptr getelementptr inbounds nuw (i8, ptr @executor_globals, i64 416), align 8, !tbaa !69
  store ptr %18, ptr getelementptr inbounds nuw (i8, ptr @executor_globals, i64 1776), align 8, !tbaa !70
  store ptr %19, ptr getelementptr inbounds nuw (i8, ptr @executor_globals, i64 592), align 8, !tbaa !71
  store ptr %20, ptr getelementptr inbounds nuw (i8, ptr @executor_globals, i64 600), align 8, !tbaa !72
  %31 = getelementptr inbounds nuw i8, ptr %30, i64 40
  %32 = load i32, ptr %31, align 8, !tbaa !53
  %33 = icmp eq i32 %32, 3
  br i1 %33, label %34, label %54

34:                                               ; preds = %25
  tail call void @zend_observer_fiber_destroy_notify(ptr noundef nonnull %30) #22
  %35 = getelementptr inbounds nuw i8, ptr %30, i64 24
  %36 = load ptr, ptr %35, align 8, !tbaa !59
  %.not.i = icmp eq ptr %36, null
  br i1 %.not.i, label %38, label %37

37:                                               ; preds = %34
  tail call void %36(ptr noundef nonnull %30) #22
  br label %38

38:                                               ; preds = %37, %34
  %39 = getelementptr inbounds nuw i8, ptr %30, i64 32
  %40 = load ptr, ptr %39, align 8, !tbaa !47
  %41 = load i64, ptr @zend_fiber_get_page_size.page_size, align 8, !tbaa !46
  %.not.i.i.i = icmp eq i64 %41, 0
  br i1 %.not.i.i.i, label %42, label %zend_fiber_destroy_context.exit

42:                                               ; preds = %38
  %43 = tail call i64 @zend_get_page_size() #22
  %44 = tail call range(i64 0, 65) i64 @llvm.ctpop.i64(i64 %43)
  %or.cond.i.i.i = icmp eq i64 %44, 1
  %spec.store.select.i.i.i = select i1 %or.cond.i.i.i, i64 %43, i64 4096
  store i64 %spec.store.select.i.i.i, ptr @zend_fiber_get_page_size.page_size, align 8
  br label %zend_fiber_destroy_context.exit

zend_fiber_destroy_context.exit:                  ; preds = %38, %42
  %45 = phi i64 [ %spec.store.select.i.i.i, %42 ], [ %41, %38 ]
  %46 = load ptr, ptr %40, align 8, !tbaa !42
  %47 = ptrtoint ptr %46 to i64
  %48 = sub i64 %47, %45
  %49 = inttoptr i64 %48 to ptr
  %50 = getelementptr inbounds nuw i8, ptr %40, i64 8
  %51 = load i64, ptr %50, align 8, !tbaa !44
  %52 = add i64 %51, %45
  %53 = tail call i32 @munmap(ptr noundef %49, i64 noundef %52) #22
  tail call void @_efree(ptr noundef nonnull %40) #22
  br label %54

54:                                               ; preds = %zend_fiber_destroy_context.exit, %25
  ret void
}